target datalayout = "e-m:e-p270:32:32-p271:32:32-p272:64:64-i64:64-i128:128-f80:128-n8:16:32:64-S128"
target triple = "x86_64-pc-linux-gnu"

%struct.ARKodeMemRec = type { ptr, double, ptr, i32, i32, double, double, ptr, i32, double, ptr, i32, i32, ptr, ptr, i32, ptr, ptr, i32, ptr, ptr, ptr, ptr, ptr, ptr, ptr, ptr, ptr, ptr, ptr, ptr, ptr, ptr, ptr, i32, ptr, ptr, i32, ptr, i32, ptr, ptr, ptr, ptr, ptr, ptr, ptr, ptr, ptr, ptr, ptr, ptr, ptr, ptr, ptr, ptr, ptr, ptr, ptr, ptr, ptr, ptr, ptr, ptr, ptr, ptr, i32, ptr, ptr, ptr, ptr, ptr, ptr, ptr, i32, ptr, ptr, ptr, i32, ptr, ptr, ptr, ptr, ptr, ptr, ptr, i32, i32, i32, i32, double, double, double, double, double, double, double, double, double, double, i32, ptr, i64, i32, i32, i32, i32, i64, i64, i32, i64, i64, i64, i64, i64, i64, i64, double, double, double, double, double, i32, double, double, i32, i32, i32, i32, i32, i32, i32, i32, ptr, i32, ptr, ptr, ptr, ptr, i32, i32, i32 }

@.str = private unnamed_addr constant [115 x i8] c"generated/home/dtcxzyw/WorkSpace/Projects/compilers/llvm-opt-benchmark/bench/sundials/sundials/src/arkode/arkode.c\00", align 1
@.str.1 = private unnamed_addr constant [27 x i8] c"arkode_mem = NULL illegal.\00", align 1
@__func__.ARKodeCreateMRIStepInnerStepper = private unnamed_addr constant [32 x i8] c"ARKodeCreateMRIStepInnerStepper\00", align 1
@.str.79 = private unnamed_addr constant [46 x i8] c"time-stepping module does not support forcing\00", align 1

; Function Attrs: nounwind uwtable
define i32 @ARKodeCreateMRIStepInnerStepper(ptr noundef %0, ptr noundef %1) #0 {
  %3 = alloca i32, align 4
  %4 = alloca ptr, align 8
  %5 = alloca ptr, align 8
  %6 = alloca ptr, align 8
  %7 = alloca i32, align 4
  %8 = alloca i32, align 4
  store ptr %0, ptr %4, align 8, !tbaa !3
  store ptr %1, ptr %5, align 8, !tbaa !158
  call void @llvm.lifetime.start.p0(i64 8, ptr %6) #10
  call void @llvm.lifetime.start.p0(i64 4, ptr %7) #10
  %9 = load ptr, ptr %4, align 8, !tbaa !3
  %10 = icmp eq ptr %9, null
  br i1 %10, label %11, label %12

11:                                               ; preds = %2
  call void (ptr, i32, i32, ptr, ptr, ptr, ...) @arkProcessError(ptr noundef null, i32 noundef -21, i32 noundef 1403, ptr noundef @__func__.ARKodeCreateMRIStepInnerStepper, ptr noundef @.str, ptr noundef @.str.1)
  store i32 -21, ptr %3, align 4
  store i32 1, ptr %8, align 4
  br label %88

12:                                               ; preds = %2
  %13 = load ptr, ptr %4, align 8, !tbaa !3
  store ptr %13, ptr %6, align 8, !tbaa !11
  %14 = load ptr, ptr %6, align 8, !tbaa !11
  %15 = getelementptr inbounds nuw %struct.ARKodeMemRec, ptr %14, i32 0, i32 71
  %16 = load ptr, ptr %15, align 8, !tbaa !160
  %17 = icmp eq ptr %16, null
  br i1 %17, label %18, label %20

18:                                               ; preds = %12
  %19 = load ptr, ptr %6, align 8, !tbaa !11
  call void (ptr, i32, i32, ptr, ptr, ptr, ...) @arkProcessError(ptr noundef %19, i32 noundef -48, i32 noundef 1412, ptr noundef @__func__.ARKodeCreateMRIStepInnerStepper, ptr noundef @.str, ptr noundef @.str.79)
  store i32 -48, ptr %3, align 4
  store i32 1, ptr %8, align 4
  br label %88

20:                                               ; preds = %12
  %21 = load ptr, ptr %6, align 8, !tbaa !11
  %22 = getelementptr inbounds nuw %struct.ARKodeMemRec, ptr %21, i32 0, i32 0
  %23 = load ptr, ptr %22, align 8, !tbaa !49
  %24 = load ptr, ptr %5, align 8, !tbaa !158
  %25 = call i32 @MRIStepInnerStepper_Create(ptr noundef %23, ptr noundef %24)
  store i32 %25, ptr %7, align 4, !tbaa !38
  %26 = load i32, ptr %7, align 4, !tbaa !38
  %27 = icmp ne i32 %26, 0
  br i1 %27, label %28, label %30

28:                                               ; preds = %20
  %29 = load i32, ptr %7, align 4, !tbaa !38
  store i32 %29, ptr %3, align 4
  store i32 1, ptr %8, align 4
  br label %88

30:                                               ; preds = %20
  %31 = load ptr, ptr %5, align 8, !tbaa !158
  %32 = load ptr, ptr %31, align 8, !tbaa !161
  %33 = load ptr, ptr %4, align 8, !tbaa !3
  %34 = call i32 @MRIStepInnerStepper_SetContent(ptr noundef %32, ptr noundef %33)
  store i32 %34, ptr %7, align 4, !tbaa !38
  %35 = load i32, ptr %7, align 4, !tbaa !38
  %36 = icmp ne i32 %35, 0
  br i1 %36, label %37, label %39

37:                                               ; preds = %30
  %38 = load i32, ptr %7, align 4, !tbaa !38
  store i32 %38, ptr %3, align 4
  store i32 1, ptr %8, align 4
  br label %88

39:                                               ; preds = %30
  %40 = load ptr, ptr %5, align 8, !tbaa !158
  %41 = load ptr, ptr %40, align 8, !tbaa !161
  %42 = call i32 @MRIStepInnerStepper_SetEvolveFn(ptr noundef %41, ptr noundef @ark_MRIStepInnerEvolve)
  store i32 %42, ptr %7, align 4, !tbaa !38
  %43 = load i32, ptr %7, align 4, !tbaa !38
  %44 = icmp ne i32 %43, 0
  br i1 %44, label %45, label %47

45:                                               ; preds = %39
  %46 = load i32, ptr %7, align 4, !tbaa !38
  store i32 %46, ptr %3, align 4
  store i32 1, ptr %8, align 4
  br label %88

47:                                               ; preds = %39
  %48 = load ptr, ptr %5, align 8, !tbaa !158
  %49 = load ptr, ptr %48, align 8, !tbaa !161
  %50 = call i32 @MRIStepInnerStepper_SetFullRhsFn(ptr noundef %49, ptr noundef @ark_MRIStepInnerFullRhs)
  store i32 %50, ptr %7, align 4, !tbaa !38
  %51 = load i32, ptr %7, align 4, !tbaa !38
  %52 = icmp ne i32 %51, 0
  br i1 %52, label %53, label %55

53:                                               ; preds = %47
  %54 = load i32, ptr %7, align 4, !tbaa !38
  store i32 %54, ptr %3, align 4
  store i32 1, ptr %8, align 4
  br label %88

55:                                               ; preds = %47
  %56 = load ptr, ptr %5, align 8, !tbaa !158
  %57 = load ptr, ptr %56, align 8, !tbaa !161
  %58 = call i32 @MRIStepInnerStepper_SetResetFn(ptr noundef %57, ptr noundef @ark_MRIStepInnerReset)
  store i32 %58, ptr %7, align 4, !tbaa !38
  %59 = load i32, ptr %7, align 4, !tbaa !38
  %60 = icmp ne i32 %59, 0
  br i1 %60, label %61, label %63

61:                                               ; preds = %55
  %62 = load i32, ptr %7, align 4, !tbaa !38
  store i32 %62, ptr %3, align 4
  store i32 1, ptr %8, align 4
  br label %88

63:                                               ; preds = %55
  %64 = load ptr, ptr %5, align 8, !tbaa !158
  %65 = load ptr, ptr %64, align 8, !tbaa !161
  %66 = call i32 @MRIStepInnerStepper_SetAccumulatedErrorGetFn(ptr noundef %65, ptr noundef @ark_MRIStepInnerGetAccumulatedError)
  store i32 %66, ptr %7, align 4, !tbaa !38
  %67 = load i32, ptr %7, align 4, !tbaa !38
  %68 = icmp ne i32 %67, 0
  br i1 %68, label %69, label %71

69:                                               ; preds = %63
  %70 = load i32, ptr %7, align 4, !tbaa !38
  store i32 %70, ptr %3, align 4
  store i32 1, ptr %8, align 4
  br label %88

71:                                               ; preds = %63
  %72 = load ptr, ptr %5, align 8, !tbaa !158
  %73 = load ptr, ptr %72, align 8, !tbaa !161
  %74 = call i32 @MRIStepInnerStepper_SetAccumulatedErrorResetFn(ptr noundef %73, ptr noundef @ark_MRIStepInnerResetAccumulatedError)
  store i32 %74, ptr %7, align 4, !tbaa !38
  %75 = load i32, ptr %7, align 4, !tbaa !38
  %76 = icmp ne i32 %75, 0
  br i1 %76, label %77, label %79

77:                                               ; preds = %71
  %78 = load i32, ptr %7, align 4, !tbaa !38
  store i32 %78, ptr %3, align 4
  store i32 1, ptr %8, align 4
  br label %88

79:                                               ; preds = %71
  %80 = load ptr, ptr %5, align 8, !tbaa !158
  %81 = load ptr, ptr %80, align 8, !tbaa !161
  %82 = call i32 @MRIStepInnerStepper_SetRTolFn(ptr noundef %81, ptr noundef @ark_MRIStepInnerSetRTol)
  store i32 %82, ptr %7, align 4, !tbaa !38
  %83 = load i32, ptr %7, align 4, !tbaa !38
  %84 = icmp ne i32 %83, 0
  br i1 %84, label %85, label %87

85:                                               ; preds = %79
  %86 = load i32, ptr %7, align 4, !tbaa !38
  store i32 %86, ptr %3, align 4
  store i32 1, ptr %8, align 4
  br label %88

87:                                               ; preds = %79
  store i32 0, ptr %3, align 4
  store i32 1, ptr %8, align 4
  br label %88

88:                                               ; preds = %87, %85, %77, %69, %61, %53, %45, %37, %28, %18, %11
  call void @llvm.lifetime.end.p0(i64 4, ptr %7) #10
  call void @llvm.lifetime.end.p0(i64 8, ptr %6) #10
  %89 = load i32, ptr %3, align 4
  ret i32 %89
}