; Function Attrs: nounwind uwtable
define i32 @ARKodeCreateMRIStepInnerStepper(ptr noundef %0, ptr noundef %1) local_unnamed_addr #0 {
  %3 = icmp eq ptr %0, null
  br i1 %3, label %4, label %5

4:                                                ; preds = %2
  tail call void (ptr, i32, i32, ptr, ptr, ptr, ...) @arkProcessError(ptr noundef null, i32 noundef -21, i32 noundef 1403, ptr noundef nonnull @__func__.ARKodeCreateMRIStepInnerStepper, ptr noundef nonnull @.str, ptr noundef nonnull @.str.1)
  br label %34

5:                                                ; preds = %2
  %6 = getelementptr inbounds nuw i8, ptr %0, i64 552
  %7 = load ptr, ptr %6, align 8, !tbaa !162
  %8 = icmp eq ptr %7, null
  br i1 %8, label %9, label %10

9:                                                ; preds = %5
  tail call void (ptr, i32, i32, ptr, ptr, ptr, ...) @arkProcessError(ptr noundef nonnull %0, i32 noundef -48, i32 noundef 1412, ptr noundef nonnull @__func__.ARKodeCreateMRIStepInnerStepper, ptr noundef nonnull @.str, ptr noundef nonnull @.str.79)
  br label %34

10:                                               ; preds = %5
  %11 = load ptr, ptr %0, align 8, !tbaa !41
  %12 = tail call i32 @MRIStepInnerStepper_Create(ptr noundef %11, ptr noundef %1) #16
  %.not = icmp eq i32 %12, 0
  br i1 %.not, label %13, label %34

13:                                               ; preds = %10
  %14 = load ptr, ptr %1, align 8, !tbaa !163
  %15 = tail call i32 @MRIStepInnerStepper_SetContent(ptr noundef %14, ptr noundef nonnull %0) #16
  %.not39 = icmp eq i32 %15, 0
  br i1 %.not39, label %16, label %34

16:                                               ; preds = %13
  %17 = load ptr, ptr %1, align 8, !tbaa !163
  %18 = tail call i32 @MRIStepInnerStepper_SetEvolveFn(ptr noundef %17, ptr noundef nonnull @ark_MRIStepInnerEvolve) #16
  %.not40 = icmp eq i32 %18, 0
  br i1 %.not40, label %19, label %34

19:                                               ; preds = %16
  %20 = load ptr, ptr %1, align 8, !tbaa !163
  %21 = tail call i32 @MRIStepInnerStepper_SetFullRhsFn(ptr noundef %20, ptr noundef nonnull @ark_MRIStepInnerFullRhs) #16
  %.not41 = icmp eq i32 %21, 0
  br i1 %.not41, label %22, label %34

22:                                               ; preds = %19
  %23 = load ptr, ptr %1, align 8, !tbaa !163
  %24 = tail call i32 @MRIStepInnerStepper_SetResetFn(ptr noundef %23, ptr noundef nonnull @ark_MRIStepInnerReset) #16
  %.not42 = icmp eq i32 %24, 0
  br i1 %.not42, label %25, label %34

25:                                               ; preds = %22
  %26 = load ptr, ptr %1, align 8, !tbaa !163
  %27 = tail call i32 @MRIStepInnerStepper_SetAccumulatedErrorGetFn(ptr noundef %26, ptr noundef nonnull @ark_MRIStepInnerGetAccumulatedError) #16
  %.not43 = icmp eq i32 %27, 0
  br i1 %.not43, label %28, label %34

28:                                               ; preds = %25
  %29 = load ptr, ptr %1, align 8, !tbaa !163
  %30 = tail call i32 @MRIStepInnerStepper_SetAccumulatedErrorResetFn(ptr noundef %29, ptr noundef nonnull @ark_MRIStepInnerResetAccumulatedError) #16
  %.not44 = icmp eq i32 %30, 0
  br i1 %.not44, label %31, label %34

31:                                               ; preds = %28
  %32 = load ptr, ptr %1, align 8, !tbaa !163
  %33 = tail call i32 @MRIStepInnerStepper_SetRTolFn(ptr noundef %32, ptr noundef nonnull @ark_MRIStepInnerSetRTol) #16
  br label %34

34:                                               ; preds = %31, %28, %25, %22, %19, %16, %13, %10, %9, %4
  %.0 = phi i32 [ -21, %4 ], [ -48, %9 ], [ %12, %10 ], [ %15, %13 ], [ %18, %16 ], [ %21, %19 ], [ %24, %22 ], [ %27, %25 ], [ %30, %28 ], [ %33, %31 ]
  ret i32 %.0
}